target datalayout = "e-m:e-p270:32:32-p271:32:32-p272:64:64-i64:64-i128:128-f80:128-n8:16:32:64-S128"
target triple = "x86_64-pc-linux-gnu"

%struct._c_entity_addr = type { %struct._c_sockaddr, ptr, i32 }
%struct._c_sockaddr = type { ptr, ptr, i32, i16 }

@hf_node_type = internal global i32 0, align 4
@hf_node_nonce = internal global i32 0, align 4
@hf_sockaddr = internal global i32 0, align 4
@hf_inet_family = internal global i32 0, align 4
@hf_port = internal global i32 0, align 4
@hf_addr_ipv4 = internal global i32 0, align 4
@hf_addr_ipv6 = internal global i32 0, align 4
@ett_sockaddr = internal global i32 0, align 4
@ett_entityaddr = internal global i32 0, align 4
@.str.1598 = private unnamed_addr constant [24 x i8] c", Type: %s, Address: %s\00", align 1
@.str.1599 = private unnamed_addr constant [16 x i8] c"Unknown (0x02X)\00", align 1
@.str.1600 = private unnamed_addr constant [13 x i8] c"Unknown INET\00", align 1
@.str.1601 = private unnamed_addr constant [6 x i8] c"%s:%u\00", align 1
@.str.1602 = private unnamed_addr constant [5 x i8] c": %s\00", align 1

; Function Attrs: null_pointer_is_valid sspstrong uwtable
define internal i32 @c_dissect_sockaddr(ptr noundef %0, ptr noundef %1, ptr noundef %2, i32 noundef %3) #0 {
  %5 = alloca ptr, align 8
  %6 = alloca ptr, align 8
  %7 = alloca ptr, align 8
  %8 = alloca i32, align 4
  %9 = alloca ptr, align 8
  %10 = alloca ptr, align 8
  %11 = alloca %struct._c_sockaddr, align 8
  store ptr %0, ptr %5, align 8
  store ptr %1, ptr %6, align 8
  store ptr %2, ptr %7, align 8
  store i32 %3, ptr %8, align 4
  call void @llvm.lifetime.start.p0(i64 8, ptr %9) #14
  call void @llvm.lifetime.start.p0(i64 8, ptr %10) #14
  call void @llvm.lifetime.start.p0(i64 24, ptr %11) #14
  %12 = load ptr, ptr %5, align 8
  %13 = load i32, ptr @hf_sockaddr, align 4
  %14 = load ptr, ptr %7, align 8
  %15 = load i32, ptr %8, align 4
  %16 = call ptr @proto_tree_add_item(ptr noundef %12, i32 noundef %13, ptr noundef %14, i32 noundef %15, i32 noundef 128, i32 noundef 0)
  store ptr %16, ptr %9, align 8
  %17 = load ptr, ptr %9, align 8
  %18 = load i32, ptr @ett_sockaddr, align 4
  %19 = call ptr @proto_item_add_subtree(ptr noundef %17, i32 noundef %18)
  store ptr %19, ptr %10, align 8
  %20 = load ptr, ptr %7, align 8
  %21 = load i32, ptr %8, align 4
  %22 = call zeroext i16 @tvb_get_ntohs(ptr noundef %20, i32 noundef %21)
  %23 = zext i16 %22 to i32
  %24 = getelementptr inbounds nuw %struct._c_sockaddr, ptr %11, i32 0, i32 2
  store i32 %23, ptr %24, align 8
  %25 = load ptr, ptr %10, align 8
  %26 = load i32, ptr @hf_inet_family, align 4
  %27 = load ptr, ptr %7, align 8
  %28 = load i32, ptr %8, align 4
  %29 = call ptr @proto_tree_add_item(ptr noundef %25, i32 noundef %26, ptr noundef %27, i32 noundef %28, i32 noundef 2, i32 noundef 0)
  %30 = getelementptr inbounds nuw %struct._c_sockaddr, ptr %11, i32 0, i32 2
  %31 = load i32, ptr %30, align 8
  switch i32 %31, label %80 [
    i32 2, label %32
    i32 10, label %56
  ]

32:                                               ; preds = %4
  %33 = load ptr, ptr %7, align 8
  %34 = load i32, ptr %8, align 4
  %35 = add i32 %34, 2
  %36 = call zeroext i16 @tvb_get_ntohs(ptr noundef %33, i32 noundef %35)
  %37 = getelementptr inbounds nuw %struct._c_sockaddr, ptr %11, i32 0, i32 3
  store i16 %36, ptr %37, align 4
  %38 = call ptr @wmem_packet_scope()
  %39 = load ptr, ptr %7, align 8
  %40 = load i32, ptr %8, align 4
  %41 = add i32 %40, 4
  %42 = call ptr @tvb_address_to_str(ptr noundef %38, ptr noundef %39, i32 noundef 2, i32 noundef %41)
  %43 = getelementptr inbounds nuw %struct._c_sockaddr, ptr %11, i32 0, i32 1
  store ptr %42, ptr %43, align 8
  %44 = load ptr, ptr %10, align 8
  %45 = load i32, ptr @hf_port, align 4
  %46 = load ptr, ptr %7, align 8
  %47 = load i32, ptr %8, align 4
  %48 = add i32 %47, 2
  %49 = call ptr @proto_tree_add_item(ptr noundef %44, i32 noundef %45, ptr noundef %46, i32 noundef %48, i32 noundef 2, i32 noundef 0)
  %50 = load ptr, ptr %10, align 8
  %51 = load i32, ptr @hf_addr_ipv4, align 4
  %52 = load ptr, ptr %7, align 8
  %53 = load i32, ptr %8, align 4
  %54 = add i32 %53, 4
  %55 = call ptr @proto_tree_add_item(ptr noundef %50, i32 noundef %51, ptr noundef %52, i32 noundef %54, i32 noundef 4, i32 noundef 0)
  br label %83

56:                                               ; preds = %4
  %57 = load ptr, ptr %7, align 8
  %58 = load i32, ptr %8, align 4
  %59 = add i32 %58, 2
  %60 = call zeroext i16 @tvb_get_ntohs(ptr noundef %57, i32 noundef %59)
  %61 = getelementptr inbounds nuw %struct._c_sockaddr, ptr %11, i32 0, i32 3
  store i16 %60, ptr %61, align 4
  %62 = call ptr @wmem_packet_scope()
  %63 = load ptr, ptr %7, align 8
  %64 = load i32, ptr %8, align 4
  %65 = add i32 %64, 8
  %66 = call ptr @tvb_address_to_str(ptr noundef %62, ptr noundef %63, i32 noundef 3, i32 noundef %65)
  %67 = getelementptr inbounds nuw %struct._c_sockaddr, ptr %11, i32 0, i32 1
  store ptr %66, ptr %67, align 8
  %68 = load ptr, ptr %10, align 8
  %69 = load i32, ptr @hf_port, align 4
  %70 = load ptr, ptr %7, align 8
  %71 = load i32, ptr %8, align 4
  %72 = add i32 %71, 2
  %73 = call ptr @proto_tree_add_item(ptr noundef %68, i32 noundef %69, ptr noundef %70, i32 noundef %72, i32 noundef 2, i32 noundef 0)
  %74 = load ptr, ptr %10, align 8
  %75 = load i32, ptr @hf_addr_ipv6, align 4
  %76 = load ptr, ptr %7, align 8
  %77 = load i32, ptr %8, align 4
  %78 = add i32 %77, 8
  %79 = call ptr @proto_tree_add_item(ptr noundef %74, i32 noundef %75, ptr noundef %76, i32 noundef %78, i32 noundef 16, i32 noundef 0)
  br label %83

80:                                               ; preds = %4
  %81 = getelementptr inbounds nuw %struct._c_sockaddr, ptr %11, i32 0, i32 3
  store i16 0, ptr %81, align 4
  %82 = getelementptr inbounds nuw %struct._c_sockaddr, ptr %11, i32 0, i32 1
  store ptr @.str.1600, ptr %82, align 8
  br label %83

83:                                               ; preds = %80, %56, %32
  %84 = load i32, ptr %8, align 4
  %85 = add i32 %84, 128
  store i32 %85, ptr %8, align 4
  %86 = call ptr @wmem_packet_scope()
  %87 = getelementptr inbounds nuw %struct._c_sockaddr, ptr %11, i32 0, i32 1
  %88 = load ptr, ptr %87, align 8
  %89 = getelementptr inbounds nuw %struct._c_sockaddr, ptr %11, i32 0, i32 3
  %90 = load i16, ptr %89, align 4
  %91 = zext i16 %90 to i32
  %92 = call noalias ptr (ptr, ptr, ...) @wmem_strdup_printf(ptr noundef %86, ptr noundef @.str.1601, ptr noundef %88, i32 noundef %91)
  %93 = getelementptr inbounds nuw %struct._c_sockaddr, ptr %11, i32 0, i32 0
  store ptr %92, ptr %93, align 8
  %94 = load ptr, ptr %9, align 8
  %95 = getelementptr inbounds nuw %struct._c_sockaddr, ptr %11, i32 0, i32 0
  %96 = load ptr, ptr %95, align 8
  call void (ptr, ptr, ...) @proto_item_append_text(ptr noundef %94, ptr noundef @.str.1602, ptr noundef %96)
  %97 = load ptr, ptr %6, align 8
  %98 = icmp ne ptr %97, null
  br i1 %98, label %99, label %101

99:                                               ; preds = %83
  %100 = load ptr, ptr %6, align 8
  call void @llvm.memcpy.p0.p0.i64(ptr align 8 %100, ptr align 8 %11, i64 24, i1 false)
  br label %101

101:                                              ; preds = %99, %83
  %102 = load i32, ptr %8, align 4
  call void @llvm.lifetime.end.p0(i64 24, ptr %11) #14
  call void @llvm.lifetime.end.p0(i64 8, ptr %10) #14
  call void @llvm.lifetime.end.p0(i64 8, ptr %9) #14
  ret i32 %102
}

; Function Attrs: null_pointer_is_valid sspstrong uwtable
define internal ptr @c_node_type_string(i32 noundef %0) #0 {
  %2 = alloca i32, align 4
  store i32 %0, ptr %2, align 4
  %3 = load i32, ptr %2, align 4
  %4 = call ptr @val_to_str(i32 noundef %3, ptr noundef @c_node_type_strings, ptr noundef @.str.1599)
  ret ptr %4
}

; Function Attrs: null_pointer_is_valid sspstrong uwtable
define internal i32 @c_dissect_entityaddr(ptr noundef %0, i32 noundef %1, ptr noundef %2, ptr noundef %3, i32 noundef %4) #0 {
  %6 = alloca ptr, align 8
  %7 = alloca i32, align 4
  %8 = alloca ptr, align 8
  %9 = alloca ptr, align 8
  %10 = alloca i32, align 4
  %11 = alloca ptr, align 8
  %12 = alloca ptr, align 8
  %13 = alloca %struct._c_entity_addr, align 8
  store ptr %0, ptr %6, align 8
  store i32 %1, ptr %7, align 4
  store ptr %2, ptr %8, align 8
  store ptr %3, ptr %9, align 8
  store i32 %4, ptr %10, align 4
  call void @llvm.lifetime.start.p0(i64 8, ptr %11) #14
  call void @llvm.lifetime.start.p0(i64 8, ptr %12) #14
  call void @llvm.lifetime.start.p0(i64 40, ptr %13) #14
  %14 = load ptr, ptr %6, align 8
  %15 = load i32, ptr %7, align 4
  %16 = load ptr, ptr %9, align 8
  %17 = load i32, ptr %10, align 4
  %18 = call ptr @proto_tree_add_item(ptr noundef %14, i32 noundef %15, ptr noundef %16, i32 noundef %17, i32 noundef 136, i32 noundef 0)
  store ptr %18, ptr %11, align 8
  %19 = load ptr, ptr %11, align 8
  %20 = load i32, ptr @ett_entityaddr, align 4
  %21 = call ptr @proto_item_add_subtree(ptr noundef %19, i32 noundef %20)
  store ptr %21, ptr %12, align 8
  %22 = load ptr, ptr %9, align 8
  %23 = load i32, ptr %10, align 4
  %24 = call i32 @tvb_get_letohl(ptr noundef %22, i32 noundef %23)
  %25 = getelementptr inbounds nuw %struct._c_entity_addr, ptr %13, i32 0, i32 2
  store i32 %24, ptr %25, align 8
  %26 = getelementptr inbounds nuw %struct._c_entity_addr, ptr %13, i32 0, i32 2
  %27 = load i32, ptr %26, align 8
  %28 = call ptr @c_node_type_string(i32 noundef %27)
  %29 = getelementptr inbounds nuw %struct._c_entity_addr, ptr %13, i32 0, i32 1
  store ptr %28, ptr %29, align 8
  %30 = load ptr, ptr %12, align 8
  %31 = load i32, ptr @hf_node_type, align 4
  %32 = load ptr, ptr %9, align 8
  %33 = load i32, ptr %10, align 4
  %34 = call ptr @proto_tree_add_item(ptr noundef %30, i32 noundef %31, ptr noundef %32, i32 noundef %33, i32 noundef 4, i32 noundef -2147483648)
  %35 = load i32, ptr %10, align 4
  %36 = add i32 %35, 4
  store i32 %36, ptr %10, align 4
  %37 = load ptr, ptr %12, align 8
  %38 = load i32, ptr @hf_node_nonce, align 4
  %39 = load ptr, ptr %9, align 8
  %40 = load i32, ptr %10, align 4
  %41 = call ptr @proto_tree_add_item(ptr noundef %37, i32 noundef %38, ptr noundef %39, i32 noundef %40, i32 noundef 4, i32 noundef -2147483648)
  %42 = load i32, ptr %10, align 4
  %43 = add i32 %42, 4
  store i32 %43, ptr %10, align 4
  %44 = load ptr, ptr %12, align 8
  %45 = getelementptr inbounds nuw %struct._c_entity_addr, ptr %13, i32 0, i32 0
  %46 = load ptr, ptr %9, align 8
  %47 = load i32, ptr %10, align 4
  %48 = call i32 @c_dissect_sockaddr(ptr noundef %44, ptr noundef %45, ptr noundef %46, i32 noundef %47)
  store i32 %48, ptr %10, align 4
  %49 = load ptr, ptr %11, align 8
  %50 = getelementptr inbounds nuw %struct._c_entity_addr, ptr %13, i32 0, i32 1
  %51 = load ptr, ptr %50, align 8
  %52 = getelementptr inbounds nuw %struct._c_entity_addr, ptr %13, i32 0, i32 0
  %53 = getelementptr inbounds nuw %struct._c_sockaddr, ptr %52, i32 0, i32 0
  %54 = load ptr, ptr %53, align 8
  call void (ptr, ptr, ...) @proto_item_append_text(ptr noundef %49, ptr noundef @.str.1598, ptr noundef %51, ptr noundef %54)
  %55 = load ptr, ptr %8, align 8
  %56 = icmp ne ptr %55, null
  br i1 %56, label %57, label %59

57:                                               ; preds = %5
  %58 = load ptr, ptr %8, align 8
  call void @llvm.memcpy.p0.p0.i64(ptr align 8 %58, ptr align 8 %13, i64 40, i1 false)
  br label %59

59:                                               ; preds = %57, %5
  %60 = load i32, ptr %10, align 4
  call void @llvm.lifetime.end.p0(i64 40, ptr %13) #14
  call void @llvm.lifetime.end.p0(i64 8, ptr %12) #14
  call void @llvm.lifetime.end.p0(i64 8, ptr %11) #14
  ret i32 %60
}