; Function Attrs: null_pointer_is_valid sspstrong uwtable
define internal fastcc noundef i32 @c_dissect_entityaddr(ptr noundef %0, i32 noundef %1, ptr noundef writeonly captures(address_is_null) %2, ptr noundef %3, i32 noundef %4) unnamed_addr #0 {
  %6 = tail call ptr @proto_tree_add_item(ptr noundef %0, i32 noundef %1, ptr noundef %3, i32 noundef %4, i32 noundef 136, i32 noundef 0)
  %7 = load i32, ptr @ett_entityaddr, align 4
  %8 = tail call ptr @proto_item_add_subtree(ptr noundef %6, i32 noundef %7)
  %9 = tail call i32 @tvb_get_letohl(ptr noundef %3, i32 noundef %4)
  %10 = tail call ptr @val_to_str(i32 noundef %9, ptr noundef nonnull @c_node_type_strings, ptr noundef nonnull @.str.1599)
  %11 = load i32, ptr @hf_node_type, align 4
  %12 = tail call ptr @proto_tree_add_item(ptr noundef %8, i32 noundef %11, ptr noundef %3, i32 noundef %4, i32 noundef 4, i32 noundef -2147483648)
  %13 = add i32 %4, 4
  %14 = load i32, ptr @hf_node_nonce, align 4
  %15 = tail call ptr @proto_tree_add_item(ptr noundef %8, i32 noundef %14, ptr noundef %3, i32 noundef %13, i32 noundef 4, i32 noundef -2147483648)
  %16 = add i32 %4, 8
  %17 = load i32, ptr @hf_sockaddr, align 4
  %18 = tail call ptr @proto_tree_add_item(ptr noundef %8, i32 noundef %17, ptr noundef %3, i32 noundef %16, i32 noundef 128, i32 noundef 0)
  %19 = load i32, ptr @ett_sockaddr, align 4
  %20 = tail call ptr @proto_item_add_subtree(ptr noundef %18, i32 noundef %19)
  %21 = tail call zeroext i16 @tvb_get_ntohs(ptr noundef %3, i32 noundef %16)
  %22 = zext i16 %21 to i32
  %23 = load i32, ptr @hf_inet_family, align 4
  %24 = tail call ptr @proto_tree_add_item(ptr noundef %20, i32 noundef %23, ptr noundef %3, i32 noundef %16, i32 noundef 2, i32 noundef 0)
  switch i16 %21, label %c_dissect_sockaddr.exit [
    i16 2, label %.sink.split.i
    i16 10, label %25
  ]

25:                                               ; preds = %5
  br label %.sink.split.i

.sink.split.i:                                    ; preds = %25, %5
  %.sink38.i = phi i32 [ 8, %25 ], [ 4, %5 ]
  %.sink36.i = phi i32 [ 3, %25 ], [ 2, %5 ]
  %hf_addr_ipv6.sink.i = phi ptr [ @hf_addr_ipv6, %25 ], [ @hf_addr_ipv4, %5 ]
  %.sink34.i = phi i32 [ 16, %25 ], [ 4, %5 ]
  %26 = add i32 %4, 10
  %27 = tail call zeroext i16 @tvb_get_ntohs(ptr noundef %3, i32 noundef %26)
  %28 = tail call ptr @wmem_packet_scope()
  %29 = add i32 %.sink38.i, %16
  %30 = tail call ptr @tvb_address_to_str(ptr noundef %28, ptr noundef %3, i32 noundef %.sink36.i, i32 noundef %29)
  %31 = load i32, ptr @hf_port, align 4
  %32 = tail call ptr @proto_tree_add_item(ptr noundef %20, i32 noundef %31, ptr noundef %3, i32 noundef %26, i32 noundef 2, i32 noundef 0)
  %33 = load i32, ptr %hf_addr_ipv6.sink.i, align 4
  %34 = tail call ptr @proto_tree_add_item(ptr noundef %20, i32 noundef %33, ptr noundef %3, i32 noundef %29, i32 noundef %.sink34.i, i32 noundef 0)
  br label %c_dissect_sockaddr.exit

c_dissect_sockaddr.exit:                          ; preds = %5, %.sink.split.i
  %.sroa.11.0.i = phi i16 [ 0, %5 ], [ %27, %.sink.split.i ]
  %.sroa.5.0.i = phi ptr [ @.str.1600, %5 ], [ %30, %.sink.split.i ]
  %35 = tail call ptr @wmem_packet_scope()
  %36 = zext i16 %.sroa.11.0.i to i32
  %37 = tail call noalias ptr (ptr, ptr, ...) @wmem_strdup_printf(ptr noundef %35, ptr noundef nonnull @.str.1601, ptr noundef %.sroa.5.0.i, i32 noundef %36)
  tail call void (ptr, ptr, ...) @proto_item_append_text(ptr noundef %18, ptr noundef nonnull @.str.1602, ptr noundef %37)
  tail call void (ptr, ptr, ...) @proto_item_append_text(ptr noundef %6, ptr noundef nonnull @.str.1598, ptr noundef %10, ptr noundef %37)
  %.not = icmp eq ptr %2, null
  br i1 %.not, label %39, label %38

38:                                               ; preds = %c_dissect_sockaddr.exit
  store ptr %37, ptr %2, align 8
  %.sroa.5.0..sroa_idx = getelementptr inbounds nuw i8, ptr %2, i64 8
  store ptr %.sroa.5.0.i, ptr %.sroa.5.0..sroa_idx, align 8
  %.sroa.6.0..sroa_idx = getelementptr inbounds nuw i8, ptr %2, i64 16
  store i32 %22, ptr %.sroa.6.0..sroa_idx, align 8
  %.sroa.7.0..sroa_idx = getelementptr inbounds nuw i8, ptr %2, i64 20
  store i16 %.sroa.11.0.i, ptr %.sroa.7.0..sroa_idx, align 4
  %.sroa.821.0..sroa_idx = getelementptr inbounds nuw i8, ptr %2, i64 24
  store ptr %10, ptr %.sroa.821.0..sroa_idx, align 8
  %.sroa.10.0..sroa_idx = getelementptr inbounds nuw i8, ptr %2, i64 32
  store i32 %9, ptr %.sroa.10.0..sroa_idx, align 8
  br label %39

39:                                               ; preds = %38, %c_dissect_sockaddr.exit
  %40 = add i32 %4, 136
  ret i32 %40
}